; Function Attrs: nounwind uwtable
define noalias nonnull ptr @l_Lake_Workspace_runFetchM___rarg___lambda__2___boxed(ptr noundef %0, ptr noundef %1, ptr noundef %2, ptr noundef %3, ptr noundef %4, ptr noundef %5, ptr noundef %6, ptr noundef %7) local_unnamed_addr #0 {
  tail call void @lean_inc_heartbeat() #5
  %9 = tail call noalias ptr @mi_malloc_small(i64 noundef 24) #5
  %10 = icmp eq ptr %9, null
  br i1 %10, label %11, label %lean_alloc_ctor.exit.i

11:                                               ; preds = %8
  tail call void @lean_internal_panic_out_of_memory() #6
  unreachable

lean_alloc_ctor.exit.i:                           ; preds = %8
  %12 = getelementptr inbounds nuw i8, ptr %9, i64 4
  store i32 1, ptr %9, align 4, !tbaa !8
  store i32 131096, ptr %12, align 4
  %13 = getelementptr inbounds nuw i8, ptr %9, i64 8
  store ptr %0, ptr %13, align 8, !tbaa !4
  %14 = getelementptr inbounds nuw i8, ptr %9, i64 16
  store ptr %6, ptr %14, align 8, !tbaa !4
  tail call void @lean_inc_heartbeat() #5
  %15 = tail call noalias ptr @mi_malloc_small(i64 noundef 24) #5
  %16 = icmp eq ptr %15, null
  br i1 %16, label %17, label %l_Lake_Workspace_runFetchM___rarg___lambda__2.exit

17:                                               ; preds = %lean_alloc_ctor.exit.i
  tail call void @lean_internal_panic_out_of_memory() #6
  unreachable

l_Lake_Workspace_runFetchM___rarg___lambda__2.exit: ; preds = %lean_alloc_ctor.exit.i
  %18 = getelementptr inbounds nuw i8, ptr %15, i64 4
  store i32 1, ptr %15, align 4, !tbaa !8
  store i32 131096, ptr %18, align 4
  %19 = getelementptr inbounds nuw i8, ptr %15, i64 8
  store ptr %9, ptr %19, align 8, !tbaa !4
  %20 = getelementptr inbounds nuw i8, ptr %15, i64 16
  store ptr %7, ptr %20, align 8, !tbaa !4
  %21 = ptrtoint ptr %5 to i64
  %22 = and i64 %21, 1
  %.not = icmp eq i64 %22, 0
  br i1 %.not, label %23, label %lean_dec.exit17

23:                                               ; preds = %l_Lake_Workspace_runFetchM___rarg___lambda__2.exit
  %24 = load i32, ptr %5, align 4, !tbaa !8
  %25 = icmp sgt i32 %24, 1
  br i1 %25, label %26, label %28, !prof !11

26:                                               ; preds = %23
  %27 = add nsw i32 %24, -1
  store i32 %27, ptr %5, align 4, !tbaa !8
  br label %lean_dec.exit17

28:                                               ; preds = %23
  %.not.i = icmp eq i32 %24, 0
  br i1 %.not.i, label %lean_dec.exit17, label %29

29:                                               ; preds = %28
  tail call void @lean_dec_ref_cold(ptr noundef nonnull %5) #5
  br label %lean_dec.exit17

lean_dec.exit17:                                  ; preds = %29, %28, %26, %l_Lake_Workspace_runFetchM___rarg___lambda__2.exit
  %30 = ptrtoint ptr %4 to i64
  %31 = and i64 %30, 1
  %.not26 = icmp eq i64 %31, 0
  br i1 %.not26, label %32, label %lean_dec.exit16

32:                                               ; preds = %lean_dec.exit17
  %33 = load i32, ptr %4, align 4, !tbaa !8
  %34 = icmp sgt i32 %33, 1
  br i1 %34, label %35, label %37, !prof !11

35:                                               ; preds = %32
  %36 = add nsw i32 %33, -1
  store i32 %36, ptr %4, align 4, !tbaa !8
  br label %lean_dec.exit16

37:                                               ; preds = %32
  %.not.i18 = icmp eq i32 %33, 0
  br i1 %.not.i18, label %lean_dec.exit16, label %38

38:                                               ; preds = %37
  tail call void @lean_dec_ref_cold(ptr noundef nonnull %4) #5
  br label %lean_dec.exit16

lean_dec.exit16:                                  ; preds = %38, %37, %35, %lean_dec.exit17
  %39 = ptrtoint ptr %3 to i64
  %40 = and i64 %39, 1
  %.not27 = icmp eq i64 %40, 0
  br i1 %.not27, label %41, label %lean_dec.exit15

41:                                               ; preds = %lean_dec.exit16
  %42 = load i32, ptr %3, align 4, !tbaa !8
  %43 = icmp sgt i32 %42, 1
  br i1 %43, label %44, label %46, !prof !11

44:                                               ; preds = %41
  %45 = add nsw i32 %42, -1
  store i32 %45, ptr %3, align 4, !tbaa !8
  br label %lean_dec.exit15

46:                                               ; preds = %41
  %.not.i20 = icmp eq i32 %42, 0
  br i1 %.not.i20, label %lean_dec.exit15, label %47

47:                                               ; preds = %46
  tail call void @lean_dec_ref_cold(ptr noundef nonnull %3) #5
  br label %lean_dec.exit15

lean_dec.exit15:                                  ; preds = %47, %46, %44, %lean_dec.exit16
  %48 = ptrtoint ptr %2 to i64
  %49 = and i64 %48, 1
  %.not28 = icmp eq i64 %49, 0
  br i1 %.not28, label %50, label %lean_dec.exit14

50:                                               ; preds = %lean_dec.exit15
  %51 = load i32, ptr %2, align 4, !tbaa !8
  %52 = icmp sgt i32 %51, 1
  br i1 %52, label %53, label %55, !prof !11

53:                                               ; preds = %50
  %54 = add nsw i32 %51, -1
  store i32 %54, ptr %2, align 4, !tbaa !8
  br label %lean_dec.exit14

55:                                               ; preds = %50
  %.not.i22 = icmp eq i32 %51, 0
  br i1 %.not.i22, label %lean_dec.exit14, label %56

56:                                               ; preds = %55
  tail call void @lean_dec_ref_cold(ptr noundef nonnull %2) #5
  br label %lean_dec.exit14

lean_dec.exit14:                                  ; preds = %56, %55, %53, %lean_dec.exit15
  %57 = ptrtoint ptr %1 to i64
  %58 = and i64 %57, 1
  %.not29 = icmp eq i64 %58, 0
  br i1 %.not29, label %59, label %lean_dec.exit

59:                                               ; preds = %lean_dec.exit14
  %60 = load i32, ptr %1, align 4, !tbaa !8
  %61 = icmp sgt i32 %60, 1
  br i1 %61, label %62, label %64, !prof !11

62:                                               ; preds = %59
  %63 = add nsw i32 %60, -1
  store i32 %63, ptr %1, align 4, !tbaa !8
  br label %lean_dec.exit

64:                                               ; preds = %59
  %.not.i24 = icmp eq i32 %60, 0
  br i1 %.not.i24, label %lean_dec.exit, label %65

65:                                               ; preds = %64
  tail call void @lean_dec_ref_cold(ptr noundef nonnull %1) #5
  br label %lean_dec.exit

lean_dec.exit:                                    ; preds = %65, %64, %62, %lean_dec.exit14
  ret ptr %15
}